target datalayout = "e-m:e-p270:32:32-p271:32:32-p272:64:64-i64:64-i128:128-f80:128-n8:16:32:64-S128"
target triple = "x86_64-pc-linux-gnu"

%struct.store_engine = type { %union.pthread_mutex_t, ptr, ptr, ptr, ptr, ptr, ptr, ptr, i64, i32, i32, i32, i32, i32, i32, i32, i32, %union.pthread_mutex_t, %struct.extstore_stats, %struct.store_maint }
%union.pthread_mutex_t = type { %struct.__pthread_mutex_s }
%struct.__pthread_mutex_s = type { i32, i32, i32, i32, i32, i16, i16, %struct.__pthread_internal_list }
%struct.__pthread_internal_list = type { ptr, ptr }
%struct.extstore_stats = type { i64, i64, i64, i64, i64, i64, i64, i64, i64, i64, i64, i64, i64, i64, i64, i64, i64, ptr }
%struct.store_maint = type { %union.pthread_mutex_t }
%struct._store_page = type { %union.pthread_mutex_t, i64, i64, i64, i32, i32, i32, i32, i32, i32, i32, i16, i8, i8, i8, ptr, ptr }

; Function Attrs: nounwind uwtable
define dso_local void @extstore_evict_page(ptr noundef %0, i32 noundef %1, i64 noundef %2) #0 {
  %4 = alloca ptr, align 8
  %5 = alloca i32, align 4
  %6 = alloca i64, align 8
  %7 = alloca ptr, align 8
  %8 = alloca ptr, align 8
  store ptr %0, ptr %4, align 8, !tbaa !4
  store i32 %1, ptr %5, align 4, !tbaa !27
  store i64 %2, ptr %6, align 8, !tbaa !83
  call void @llvm.lifetime.start.p0(i64 8, ptr %7) #8
  %9 = load ptr, ptr %4, align 8, !tbaa !4
  store ptr %9, ptr %7, align 8, !tbaa !10
  call void @llvm.lifetime.start.p0(i64 8, ptr %8) #8
  %10 = load ptr, ptr %7, align 8, !tbaa !10
  %11 = getelementptr inbounds nuw %struct.store_engine, ptr %10, i32 0, i32 1
  %12 = load ptr, ptr %11, align 8, !tbaa !39
  %13 = load i32, ptr %5, align 4, !tbaa !27
  %14 = zext i32 %13 to i64
  %15 = getelementptr inbounds nuw %struct._store_page, ptr %12, i64 %14
  store ptr %15, ptr %8, align 8, !tbaa !40
  %16 = load ptr, ptr %8, align 8, !tbaa !40
  %17 = getelementptr inbounds nuw %struct._store_page, ptr %16, i32 0, i32 0
  %18 = call i32 @pthread_mutex_lock(ptr noundef %17) #8
  %19 = load ptr, ptr %8, align 8, !tbaa !40
  %20 = getelementptr inbounds nuw %struct._store_page, ptr %19, i32 0, i32 13
  %21 = load i8, ptr %20, align 1, !tbaa !58, !range !53, !noundef !54
  %22 = trunc i8 %21 to i1
  br i1 %22, label %73, label %23

23:                                               ; preds = %3
  %24 = load ptr, ptr %8, align 8, !tbaa !40
  %25 = getelementptr inbounds nuw %struct._store_page, ptr %24, i32 0, i32 12
  %26 = load i8, ptr %25, align 2, !tbaa !52, !range !53, !noundef !54
  %27 = trunc i8 %26 to i1
  br i1 %27, label %73, label %28

28:                                               ; preds = %23
  %29 = load ptr, ptr %8, align 8, !tbaa !40
  %30 = getelementptr inbounds nuw %struct._store_page, ptr %29, i32 0, i32 4
  %31 = load i32, ptr %30, align 8, !tbaa !48
  %32 = zext i32 %31 to i64
  %33 = load i64, ptr %6, align 8, !tbaa !83
  %34 = icmp eq i64 %32, %33
  br i1 %34, label %35, label %73

35:                                               ; preds = %28
  %36 = load ptr, ptr %8, align 8, !tbaa !40
  %37 = getelementptr inbounds nuw %struct._store_page, ptr %36, i32 0, i32 13
  store i8 1, ptr %37, align 1, !tbaa !58
  %38 = load ptr, ptr %7, align 8, !tbaa !10
  %39 = getelementptr inbounds nuw %struct.store_engine, ptr %38, i32 0, i32 17
  %40 = call i32 @pthread_mutex_lock(ptr noundef %39) #8
  %41 = load ptr, ptr %7, align 8, !tbaa !10
  %42 = getelementptr inbounds nuw %struct.store_engine, ptr %41, i32 0, i32 18
  %43 = getelementptr inbounds nuw %struct.extstore_stats, ptr %42, i32 0, i32 2
  %44 = load i64, ptr %43, align 8, !tbaa !155
  %45 = add i64 %44, 1
  store i64 %45, ptr %43, align 8, !tbaa !155
  %46 = load ptr, ptr %8, align 8, !tbaa !40
  %47 = getelementptr inbounds nuw %struct._store_page, ptr %46, i32 0, i32 1
  %48 = load i64, ptr %47, align 8, !tbaa !57
  %49 = load ptr, ptr %7, align 8, !tbaa !10
  %50 = getelementptr inbounds nuw %struct.store_engine, ptr %49, i32 0, i32 18
  %51 = getelementptr inbounds nuw %struct.extstore_stats, ptr %50, i32 0, i32 7
  %52 = load i64, ptr %51, align 8, !tbaa !156
  %53 = add i64 %52, %48
  store i64 %53, ptr %51, align 8, !tbaa !156
  %54 = load ptr, ptr %8, align 8, !tbaa !40
  %55 = getelementptr inbounds nuw %struct._store_page, ptr %54, i32 0, i32 2
  %56 = load i64, ptr %55, align 8, !tbaa !50
  %57 = load ptr, ptr %7, align 8, !tbaa !10
  %58 = getelementptr inbounds nuw %struct.store_engine, ptr %57, i32 0, i32 18
  %59 = getelementptr inbounds nuw %struct.extstore_stats, ptr %58, i32 0, i32 11
  %60 = load i64, ptr %59, align 8, !tbaa !157
  %61 = add i64 %60, %56
  store i64 %61, ptr %59, align 8, !tbaa !157
  %62 = load ptr, ptr %7, align 8, !tbaa !10
  %63 = getelementptr inbounds nuw %struct.store_engine, ptr %62, i32 0, i32 17
  %64 = call i32 @pthread_mutex_unlock(ptr noundef %63) #8
  %65 = load ptr, ptr %8, align 8, !tbaa !40
  %66 = getelementptr inbounds nuw %struct._store_page, ptr %65, i32 0, i32 5
  %67 = load i32, ptr %66, align 4, !tbaa !61
  %68 = icmp eq i32 %67, 0
  br i1 %68, label %69, label %72

69:                                               ; preds = %35
  %70 = load ptr, ptr %7, align 8, !tbaa !10
  %71 = load ptr, ptr %8, align 8, !tbaa !40
  call void @_free_page(ptr noundef %70, ptr noundef %71)
  br label %72

72:                                               ; preds = %69, %35
  br label %73

73:                                               ; preds = %72, %28, %23, %3
  %74 = load ptr, ptr %8, align 8, !tbaa !40
  %75 = getelementptr inbounds nuw %struct._store_page, ptr %74, i32 0, i32 0
  %76 = call i32 @pthread_mutex_unlock(ptr noundef %75) #8
  call void @llvm.lifetime.end.p0(i64 8, ptr %8) #8
  call void @llvm.lifetime.end.p0(i64 8, ptr %7) #8
  ret void
}