; Function Attrs: nounwind uwtable
define dso_local void @extstore_evict_page(ptr noundef %0, i32 noundef %1, i64 noundef %2) local_unnamed_addr #0 {
  %4 = getelementptr inbounds nuw i8, ptr %0, i64 40
  %5 = load ptr, ptr %4, align 8, !tbaa !33
  %6 = zext i32 %1 to i64
  %7 = getelementptr inbounds nuw %struct._store_page, ptr %5, i64 %6
  %8 = tail call i32 @pthread_mutex_lock(ptr noundef %7) #13
  %9 = getelementptr inbounds nuw i8, ptr %7, i64 95
  %10 = load i8, ptr %9, align 1, !tbaa !51, !range !46, !noundef !47
  %11 = trunc nuw i8 %10 to i1
  br i1 %11, label %42, label %12

12:                                               ; preds = %3
  %13 = getelementptr inbounds nuw i8, ptr %7, i64 94
  %14 = load i8, ptr %13, align 2, !tbaa !45, !range !46, !noundef !47
  %15 = trunc nuw i8 %14 to i1
  br i1 %15, label %42, label %16

16:                                               ; preds = %12
  %17 = getelementptr inbounds nuw i8, ptr %7, i64 64
  %18 = load i32, ptr %17, align 8, !tbaa !41
  %19 = zext i32 %18 to i64
  %20 = icmp eq i64 %2, %19
  br i1 %20, label %21, label %42

21:                                               ; preds = %16
  store i8 1, ptr %9, align 1, !tbaa !51
  %22 = getelementptr inbounds nuw i8, ptr %0, i64 136
  %23 = tail call i32 @pthread_mutex_lock(ptr noundef nonnull %22) #13
  %24 = getelementptr inbounds nuw i8, ptr %0, i64 192
  %25 = load i64, ptr %24, align 8, !tbaa !144
  %26 = add i64 %25, 1
  store i64 %26, ptr %24, align 8, !tbaa !144
  %27 = getelementptr inbounds nuw i8, ptr %7, i64 40
  %28 = load i64, ptr %27, align 8, !tbaa !50
  %29 = getelementptr inbounds nuw i8, ptr %0, i64 232
  %30 = load i64, ptr %29, align 8, !tbaa !145
  %31 = add i64 %30, %28
  store i64 %31, ptr %29, align 8, !tbaa !145
  %32 = getelementptr inbounds nuw i8, ptr %7, i64 48
  %33 = load i64, ptr %32, align 8, !tbaa !43
  %34 = getelementptr inbounds nuw i8, ptr %0, i64 264
  %35 = load i64, ptr %34, align 8, !tbaa !146
  %36 = add i64 %35, %33
  store i64 %36, ptr %34, align 8, !tbaa !146
  %37 = tail call i32 @pthread_mutex_unlock(ptr noundef nonnull %22) #13
  %38 = getelementptr inbounds nuw i8, ptr %7, i64 68
  %39 = load i32, ptr %38, align 4, !tbaa !54
  %40 = icmp eq i32 %39, 0
  br i1 %40, label %41, label %42

41:                                               ; preds = %21
  tail call fastcc void @_free_page(ptr noundef nonnull %0, ptr noundef nonnull %7)
  br label %42

42:                                               ; preds = %21, %41, %16, %12, %3
  %43 = tail call i32 @pthread_mutex_unlock(ptr noundef nonnull %7) #13
  ret void
}